target datalayout = "e-m:e-p270:32:32-p271:32:32-p272:64:64-i64:64-i128:128-f80:128-n8:16:32:64-S128"
target triple = "x86_64-unknown-linux-gnu"

%"struct.ClipperLib::OutRec" = type { i32, i8, i8, ptr, ptr, ptr, ptr }
%"class.__gnu_cxx::__normal_iterator" = type { ptr }
%"class.ClipperLib::ClipperBase" = type { ptr, %"class.__gnu_cxx::__normal_iterator", %"class.std::vector.5", i8, %"class.std::vector.10", i8, i8, %"class.std::vector.15", ptr, %"class.std::priority_queue" }
%"class.std::vector.5" = type { %"struct.std::_Vector_base.6" }
%"struct.std::_Vector_base.6" = type { %"struct.std::_Vector_base<ClipperLib::LocalMinimum, std::allocator<ClipperLib::LocalMinimum>>::_Vector_impl" }
%"struct.std::_Vector_base<ClipperLib::LocalMinimum, std::allocator<ClipperLib::LocalMinimum>>::_Vector_impl" = type { %"struct.std::_Vector_base<ClipperLib::LocalMinimum, std::allocator<ClipperLib::LocalMinimum>>::_Vector_impl_data" }
%"struct.std::_Vector_base<ClipperLib::LocalMinimum, std::allocator<ClipperLib::LocalMinimum>>::_Vector_impl_data" = type { ptr, ptr, ptr }
%"class.std::vector.10" = type { %"struct.std::_Vector_base.11" }
%"struct.std::_Vector_base.11" = type { %"struct.std::_Vector_base<ClipperLib::TEdge *, std::allocator<ClipperLib::TEdge *>>::_Vector_impl" }
%"struct.std::_Vector_base<ClipperLib::TEdge *, std::allocator<ClipperLib::TEdge *>>::_Vector_impl" = type { %"struct.std::_Vector_base<ClipperLib::TEdge *, std::allocator<ClipperLib::TEdge *>>::_Vector_impl_data" }
%"struct.std::_Vector_base<ClipperLib::TEdge *, std::allocator<ClipperLib::TEdge *>>::_Vector_impl_data" = type { ptr, ptr, ptr }
%"class.std::vector.15" = type { %"struct.std::_Vector_base.16" }
%"struct.std::_Vector_base.16" = type { %"struct.std::_Vector_base<ClipperLib::OutRec *, std::allocator<ClipperLib::OutRec *>>::_Vector_impl" }
%"struct.std::_Vector_base<ClipperLib::OutRec *, std::allocator<ClipperLib::OutRec *>>::_Vector_impl" = type { %"struct.std::_Vector_base<ClipperLib::OutRec *, std::allocator<ClipperLib::OutRec *>>::_Vector_impl_data" }
%"struct.std::_Vector_base<ClipperLib::OutRec *, std::allocator<ClipperLib::OutRec *>>::_Vector_impl_data" = type { ptr, ptr, ptr }
%"class.std::priority_queue" = type <{ %"class.std::vector.20", %"struct.std::less", [7 x i8] }>
%"class.std::vector.20" = type { %"struct.std::_Vector_base.21" }
%"struct.std::_Vector_base.21" = type { %"struct.std::_Vector_base<long long, std::allocator<long long>>::_Vector_impl" }
%"struct.std::_Vector_base<long long, std::allocator<long long>>::_Vector_impl" = type { %"struct.std::_Vector_base<long long, std::allocator<long long>>::_Vector_impl_data" }
%"struct.std::_Vector_base<long long, std::allocator<long long>>::_Vector_impl_data" = type { ptr, ptr, ptr }
%"struct.std::less" = type { i8 }

; Function Attrs: mustprogress nounwind uwtable
define internal noundef ptr @_ZN10ClipperLibL14ParseFirstLeftEPNS_6OutRecE(ptr noundef %FirstLeft) #1 {
entry:
  %FirstLeft.addr = alloca ptr, align 8
  store ptr %FirstLeft, ptr %FirstLeft.addr, align 8
  br label %while.cond

while.cond:                                       ; preds = %while.body, %entry
  %0 = load ptr, ptr %FirstLeft.addr, align 8
  %tobool = icmp ne ptr %0, null
  br i1 %tobool, label %land.rhs, label %land.end

land.rhs:                                         ; preds = %while.cond
  %1 = load ptr, ptr %FirstLeft.addr, align 8
  %Pts = getelementptr inbounds %"struct.ClipperLib::OutRec", ptr %1, i32 0, i32 5
  %2 = load ptr, ptr %Pts, align 8
  %tobool1 = icmp ne ptr %2, null
  %lnot = xor i1 %tobool1, true
  br label %land.end

land.end:                                         ; preds = %land.rhs, %while.cond
  %3 = phi i1 [ false, %while.cond ], [ %lnot, %land.rhs ]
  br i1 %3, label %while.body, label %while.end

while.body:                                       ; preds = %land.end
  %4 = load ptr, ptr %FirstLeft.addr, align 8
  %FirstLeft2 = getelementptr inbounds %"struct.ClipperLib::OutRec", ptr %4, i32 0, i32 3
  %5 = load ptr, ptr %FirstLeft2, align 8
  store ptr %5, ptr %FirstLeft.addr, align 8
  br label %while.cond, !llvm.loop !121

while.end:                                        ; preds = %land.end
  %6 = load ptr, ptr %FirstLeft.addr, align 8
  ret ptr %6
}

; Function Attrs: mustprogress nounwind uwtable
define linkonce_odr hidden noundef nonnull align 8 dereferenceable(8) ptr @_ZNSt6vectorIPN10ClipperLib6OutRecESaIS2_EEixEm(ptr noundef nonnull align 8 dereferenceable(24) %this, i64 noundef %__n) #1 comdat align 2 {
entry:
  %this.addr = alloca ptr, align 8
  %__n.addr = alloca i64, align 8
  store ptr %this, ptr %this.addr, align 8
  store i64 %__n, ptr %__n.addr, align 8
  %this1 = load ptr, ptr %this.addr, align 8
  %_M_impl = getelementptr inbounds %"struct.std::_Vector_base.16", ptr %this1, i32 0, i32 0
  %_M_start = getelementptr inbounds %"struct.std::_Vector_base<ClipperLib::OutRec *, std::allocator<ClipperLib::OutRec *>>::_Vector_impl_data", ptr %_M_impl, i32 0, i32 0
  %0 = load ptr, ptr %_M_start, align 8
  %1 = load i64, ptr %__n.addr, align 8
  %add.ptr = getelementptr inbounds ptr, ptr %0, i64 %1
  ret ptr %add.ptr
}

; Function Attrs: mustprogress nounwind uwtable
define linkonce_odr hidden noundef i64 @_ZNKSt6vectorIPN10ClipperLib6OutRecESaIS2_EE4sizeEv(ptr noundef nonnull align 8 dereferenceable(24) %this) #1 comdat align 2 {
entry:
  %this.addr = alloca ptr, align 8
  store ptr %this, ptr %this.addr, align 8
  %this1 = load ptr, ptr %this.addr, align 8
  %_M_impl = getelementptr inbounds %"struct.std::_Vector_base.16", ptr %this1, i32 0, i32 0
  %_M_finish = getelementptr inbounds %"struct.std::_Vector_base<ClipperLib::OutRec *, std::allocator<ClipperLib::OutRec *>>::_Vector_impl_data", ptr %_M_impl, i32 0, i32 1
  %0 = load ptr, ptr %_M_finish, align 8
  %_M_impl2 = getelementptr inbounds %"struct.std::_Vector_base.16", ptr %this1, i32 0, i32 0
  %_M_start = getelementptr inbounds %"struct.std::_Vector_base<ClipperLib::OutRec *, std::allocator<ClipperLib::OutRec *>>::_Vector_impl_data", ptr %_M_impl2, i32 0, i32 0
  %1 = load ptr, ptr %_M_start, align 8
  %sub.ptr.lhs.cast = ptrtoint ptr %0 to i64
  %sub.ptr.rhs.cast = ptrtoint ptr %1 to i64
  %sub.ptr.sub = sub i64 %sub.ptr.lhs.cast, %sub.ptr.rhs.cast
  %sub.ptr.div = sdiv exact i64 %sub.ptr.sub, 8
  ret i64 %sub.ptr.div
}

; Function Attrs: mustprogress uwtable
define hidden void @_ZN10ClipperLib7Clipper16FixupFirstLefts3EPNS_6OutRecES2_(ptr noundef nonnull align 8 dereferenceable(135) %this, ptr noundef %OldOutRec, ptr noundef %NewOutRec) #0 align 2 {
entry:
  %this.addr = alloca ptr, align 8
  %OldOutRec.addr = alloca ptr, align 8
  %NewOutRec.addr = alloca ptr, align 8
  %i = alloca i64, align 8
  %outRec = alloca ptr, align 8
  %firstLeft = alloca ptr, align 8
  store ptr %this, ptr %this.addr, align 8
  store ptr %OldOutRec, ptr %OldOutRec.addr, align 8
  store ptr %NewOutRec, ptr %NewOutRec.addr, align 8
  %this1 = load ptr, ptr %this.addr, align 8
  store i64 0, ptr %i, align 8
  br label %for.cond

for.cond:                                         ; preds = %for.inc, %entry
  %0 = load i64, ptr %i, align 8
  %vtable = load ptr, ptr %this1, align 8
  %vbase.offset.ptr = getelementptr i8, ptr %vtable, i64 -24
  %vbase.offset = load i64, ptr %vbase.offset.ptr, align 8
  %add.ptr = getelementptr inbounds i8, ptr %this1, i64 %vbase.offset
  %m_PolyOuts = getelementptr inbounds %"class.ClipperLib::ClipperBase", ptr %add.ptr, i32 0, i32 7
  %call = call noundef i64 @_ZNKSt6vectorIPN10ClipperLib6OutRecESaIS2_EE4sizeEv(ptr noundef nonnull align 8 dereferenceable(24) %m_PolyOuts) #13
  %cmp = icmp ult i64 %0, %call
  br i1 %cmp, label %for.body, label %for.end

for.body:                                         ; preds = %for.cond
  %vtable2 = load ptr, ptr %this1, align 8
  %vbase.offset.ptr3 = getelementptr i8, ptr %vtable2, i64 -24
  %vbase.offset4 = load i64, ptr %vbase.offset.ptr3, align 8
  %add.ptr5 = getelementptr inbounds i8, ptr %this1, i64 %vbase.offset4
  %m_PolyOuts6 = getelementptr inbounds %"class.ClipperLib::ClipperBase", ptr %add.ptr5, i32 0, i32 7
  %1 = load i64, ptr %i, align 8
  %call7 = call noundef nonnull align 8 dereferenceable(8) ptr @_ZNSt6vectorIPN10ClipperLib6OutRecESaIS2_EEixEm(ptr noundef nonnull align 8 dereferenceable(24) %m_PolyOuts6, i64 noundef %1) #13
  %2 = load ptr, ptr %call7, align 8
  store ptr %2, ptr %outRec, align 8
  %3 = load ptr, ptr %outRec, align 8
  %FirstLeft = getelementptr inbounds %"struct.ClipperLib::OutRec", ptr %3, i32 0, i32 3
  %4 = load ptr, ptr %FirstLeft, align 8
  %call8 = call noundef ptr @_ZN10ClipperLibL14ParseFirstLeftEPNS_6OutRecE(ptr noundef %4)
  store ptr %call8, ptr %firstLeft, align 8
  %5 = load ptr, ptr %outRec, align 8
  %Pts = getelementptr inbounds %"struct.ClipperLib::OutRec", ptr %5, i32 0, i32 5
  %6 = load ptr, ptr %Pts, align 8
  %tobool = icmp ne ptr %6, null
  br i1 %tobool, label %land.lhs.true, label %if.end

land.lhs.true:                                    ; preds = %for.body
  %7 = load ptr, ptr %firstLeft, align 8
  %8 = load ptr, ptr %OldOutRec.addr, align 8
  %cmp9 = icmp eq ptr %7, %8
  br i1 %cmp9, label %if.then, label %if.end

if.then:                                          ; preds = %land.lhs.true
  %9 = load ptr, ptr %NewOutRec.addr, align 8
  %10 = load ptr, ptr %outRec, align 8
  %FirstLeft10 = getelementptr inbounds %"struct.ClipperLib::OutRec", ptr %10, i32 0, i32 3
  store ptr %9, ptr %FirstLeft10, align 8
  br label %if.end

if.end:                                           ; preds = %if.then, %land.lhs.true, %for.body
  br label %for.inc

for.inc:                                          ; preds = %if.end
  %11 = load i64, ptr %i, align 8
  %inc = add i64 %11, 1
  store i64 %inc, ptr %i, align 8
  br label %for.cond, !llvm.loop !123

for.end:                                          ; preds = %for.cond
  ret void
}