; Function Attrs: mustprogress nofree norecurse nosync nounwind memory(readwrite, inaccessiblemem: none) uwtable
define hidden void @_ZN10ClipperLib7Clipper16FixupFirstLefts3EPNS_6OutRecES2_(ptr nocapture noundef nonnull readonly align 8 dereferenceable(135) %this, ptr noundef readnone %OldOutRec, ptr noundef %NewOutRec) local_unnamed_addr #8 align 2 {
entry:
  %vtable5 = load ptr, ptr %this, align 8
  %vbase.offset.ptr6 = getelementptr i8, ptr %vtable5, i64 -24
  %vbase.offset7 = load i64, ptr %vbase.offset.ptr6, align 8
  %add.ptr8 = getelementptr inbounds i8, ptr %this, i64 %vbase.offset7
  %m_PolyOuts9 = getelementptr inbounds i8, ptr %add.ptr8, i64 80
  %_M_finish.i10 = getelementptr inbounds i8, ptr %add.ptr8, i64 88
  %0 = load ptr, ptr %_M_finish.i10, align 8
  %1 = load ptr, ptr %m_PolyOuts9, align 8
  %cmp15.not = icmp eq ptr %0, %1
  br i1 %cmp15.not, label %for.end, label %for.body

for.body:                                         ; preds = %entry, %for.inc
  %vtable17 = phi ptr [ %vtable, %for.inc ], [ %vtable5, %entry ]
  %2 = phi ptr [ %9, %for.inc ], [ %1, %entry ]
  %i.016 = phi i64 [ %inc, %for.inc ], [ 0, %entry ]
  %add.ptr.i = getelementptr inbounds ptr, ptr %2, i64 %i.016
  %3 = load ptr, ptr %add.ptr.i, align 8
  %FirstLeft = getelementptr inbounds i8, ptr %3, i64 8
  %4 = load ptr, ptr %FirstLeft, align 8
  %tobool.not4.i = icmp eq ptr %4, null
  br i1 %tobool.not4.i, label %_ZN10ClipperLibL14ParseFirstLeftEPNS_6OutRecE.exit, label %land.rhs.i

land.rhs.i:                                       ; preds = %for.body, %while.body.i
  %FirstLeft.addr.05.i = phi ptr [ %6, %while.body.i ], [ %4, %for.body ]
  %Pts.i = getelementptr inbounds i8, ptr %FirstLeft.addr.05.i, i64 24
  %5 = load ptr, ptr %Pts.i, align 8
  %tobool1.not.i = icmp eq ptr %5, null
  br i1 %tobool1.not.i, label %while.body.i, label %_ZN10ClipperLibL14ParseFirstLeftEPNS_6OutRecE.exit

while.body.i:                                     ; preds = %land.rhs.i
  %FirstLeft2.i = getelementptr inbounds i8, ptr %FirstLeft.addr.05.i, i64 8
  %6 = load ptr, ptr %FirstLeft2.i, align 8
  %tobool.not.i = icmp eq ptr %6, null
  br i1 %tobool.not.i, label %_ZN10ClipperLibL14ParseFirstLeftEPNS_6OutRecE.exit, label %land.rhs.i, !llvm.loop !97

_ZN10ClipperLibL14ParseFirstLeftEPNS_6OutRecE.exit: ; preds = %land.rhs.i, %while.body.i, %for.body
  %FirstLeft.addr.0.lcssa.i = phi ptr [ null, %for.body ], [ %FirstLeft.addr.05.i, %land.rhs.i ], [ null, %while.body.i ]
  %Pts = getelementptr inbounds i8, ptr %3, i64 24
  %7 = load ptr, ptr %Pts, align 8
  %tobool.not = icmp ne ptr %7, null
  %cmp9 = icmp eq ptr %FirstLeft.addr.0.lcssa.i, %OldOutRec
  %or.cond = and i1 %cmp9, %tobool.not
  br i1 %or.cond, label %if.then, label %for.inc

if.then:                                          ; preds = %_ZN10ClipperLibL14ParseFirstLeftEPNS_6OutRecE.exit
  store ptr %NewOutRec, ptr %FirstLeft, align 8
  %vtable.pre = load ptr, ptr %this, align 8
  br label %for.inc

for.inc:                                          ; preds = %_ZN10ClipperLibL14ParseFirstLeftEPNS_6OutRecE.exit, %if.then
  %vtable = phi ptr [ %vtable17, %_ZN10ClipperLibL14ParseFirstLeftEPNS_6OutRecE.exit ], [ %vtable.pre, %if.then ]
  %inc = add nuw i64 %i.016, 1
  %vbase.offset.ptr = getelementptr i8, ptr %vtable, i64 -24
  %vbase.offset = load i64, ptr %vbase.offset.ptr, align 8
  %add.ptr = getelementptr inbounds i8, ptr %this, i64 %vbase.offset
  %m_PolyOuts = getelementptr inbounds i8, ptr %add.ptr, i64 80
  %_M_finish.i = getelementptr inbounds i8, ptr %add.ptr, i64 88
  %8 = load ptr, ptr %_M_finish.i, align 8
  %9 = load ptr, ptr %m_PolyOuts, align 8
  %sub.ptr.lhs.cast.i = ptrtoint ptr %8 to i64
  %sub.ptr.rhs.cast.i = ptrtoint ptr %9 to i64
  %sub.ptr.sub.i = sub i64 %sub.ptr.lhs.cast.i, %sub.ptr.rhs.cast.i
  %sub.ptr.div.i = ashr exact i64 %sub.ptr.sub.i, 3
  %cmp = icmp ult i64 %inc, %sub.ptr.div.i
  br i1 %cmp, label %for.body, label %for.end, !llvm.loop !98

for.end:                                          ; preds = %for.inc, %entry
  ret void
}